target datalayout = "e-m:e-p270:32:32-p271:32:32-p272:64:64-i64:64-i128:128-f80:128-n8:16:32:64-S128"
target triple = "x86_64-pc-linux-gnu"

%"class.gmx::SelectionTreeElement" = type { i32, %struct.gmx_ana_selvalue_t, ptr, i32, %union.anon.0, ptr, ptr, %"class.std::shared_ptr", %"class.std::shared_ptr", %"class.std::__cxx11::basic_string", %"struct.gmx::SelectionLocation" }
%struct.gmx_ana_selvalue_t = type { i32, i32, %union.anon, i32 }
%union.anon = type { ptr }
%union.anon.0 = type { %struct.anon }
%struct.anon = type { ptr, ptr, ptr, ptr }
%"class.std::shared_ptr" = type { %"class.std::__shared_ptr" }
%"class.std::__shared_ptr" = type { ptr, %"class.std::__shared_count" }
%"class.std::__shared_count" = type { ptr }
%"class.std::__cxx11::basic_string" = type { %"struct.std::__cxx11::basic_string<char>::_Alloc_hider", i64, %union.anon.2 }
%"struct.std::__cxx11::basic_string<char>::_Alloc_hider" = type { ptr }
%union.anon.2 = type { i64, [8 x i8] }
%"struct.gmx::SelectionLocation" = type { i32, i32 }
%class.anon.25 = type { i8 }
%class.anon.27 = type { i8 }

@.str.20 = private unnamed_addr constant [127 x i8] c"generated/home/dtcxzyw/WorkSpace/Projects/compilers/llvm-opt-benchmark/bench/gromacs/gromacs/src/gromacs/selection/selelem.cpp\00", align 1
@.str.39 = private unnamed_addr constant [49 x i8] c"sel->type != SEL_BOOLEAN || vtype == GROUP_VALUE\00", align 1
@.str.40 = private unnamed_addr constant [41 x i8] c"Boolean elements must have a group value\00", align 1
@.str.41 = private unnamed_addr constant [48 x i8] c"sel->v.type == NO_VALUE || vtype == sel->v.type\00", align 1
@.str.42 = private unnamed_addr constant [47 x i8] c"_gmx_selelem_set_vtype() called more than once\00", align 1

; Function Attrs: mustprogress nounwind uwtable
define linkonce_odr noundef ptr @_ZNKSt12__shared_ptrIN3gmx20SelectionTreeElementELN9__gnu_cxx12_Lock_policyE2EE3getEv(ptr noundef nonnull align 8 dereferenceable(16) %0) #0 comdat align 2 {
  %2 = alloca ptr, align 8
  store ptr %0, ptr %2, align 8
  %3 = load ptr, ptr %2, align 8
  %4 = getelementptr inbounds %"class.std::__shared_ptr", ptr %3, i32 0, i32 0
  %5 = load ptr, ptr %4, align 8
  ret ptr %5
}

; Function Attrs: mustprogress nounwind uwtable
define linkonce_odr noundef ptr @_ZNKSt19__shared_ptr_accessIN3gmx20SelectionTreeElementELN9__gnu_cxx12_Lock_policyE2ELb0ELb0EE6_M_getEv(ptr noundef nonnull align 1 dereferenceable(1) %0) #0 comdat align 2 {
  %2 = alloca ptr, align 8
  store ptr %0, ptr %2, align 8
  %3 = load ptr, ptr %2, align 8
  %4 = call noundef ptr @_ZNKSt12__shared_ptrIN3gmx20SelectionTreeElementELN9__gnu_cxx12_Lock_policyE2EE3getEv(ptr noundef nonnull align 8 dereferenceable(16) %3) #11
  ret ptr %4
}

; Function Attrs: mustprogress uwtable
define internal void @"_ZZ22_gmx_selelem_set_vtypeRKSt10shared_ptrIN3gmx20SelectionTreeElementEE12e_selvalue_tENK3$_1clEv"(ptr noundef nonnull align 1 dereferenceable(1) %0) #1 align 2 {
  %2 = alloca ptr, align 8
  store ptr %0, ptr %2, align 8
  call void @_ZN3gmx8internal13assertHandlerEPKcS2_S2_S2_i(ptr noundef @.str.41, ptr noundef @.str.42, ptr noundef @"__PRETTY_FUNCTION__._ZZ22_gmx_selelem_set_vtypeRKSt10shared_ptrIN3gmx20SelectionTreeElementEE12e_selvalue_tENK3$_0clEv", ptr noundef @.str.20, i32 noundef 487) #14
  unreachable
}

; Function Attrs: mustprogress uwtable
define internal void @"_ZZ22_gmx_selelem_set_vtypeRKSt10shared_ptrIN3gmx20SelectionTreeElementEE12e_selvalue_tENK3$_0clEv"(ptr noundef nonnull align 1 dereferenceable(1) %0) #1 align 2 {
  %2 = alloca ptr, align 8
  store ptr %0, ptr %2, align 8
  call void @_ZN3gmx8internal13assertHandlerEPKcS2_S2_S2_i(ptr noundef @.str.39, ptr noundef @.str.40, ptr noundef @"__PRETTY_FUNCTION__._ZZ22_gmx_selelem_set_vtypeRKSt10shared_ptrIN3gmx20SelectionTreeElementEE12e_selvalue_tENK3$_0clEv", ptr noundef @.str.20, i32 noundef 485) #14
  unreachable
}

; Function Attrs: mustprogress nounwind uwtable
define linkonce_odr noundef ptr @_ZNKSt19__shared_ptr_accessIN3gmx20SelectionTreeElementELN9__gnu_cxx12_Lock_policyE2ELb0ELb0EEptEv(ptr noundef nonnull align 1 dereferenceable(1) %0) #0 comdat align 2 {
  %2 = alloca ptr, align 8
  store ptr %0, ptr %2, align 8
  %3 = load ptr, ptr %2, align 8
  %4 = call noundef ptr @_ZNKSt19__shared_ptr_accessIN3gmx20SelectionTreeElementELN9__gnu_cxx12_Lock_policyE2ELb0ELb0EE6_M_getEv(ptr noundef nonnull align 1 dereferenceable(1) %3) #11
  ret ptr %4
}

; Function Attrs: mustprogress uwtable
define void @_Z22_gmx_selelem_set_vtypeRKSt10shared_ptrIN3gmx20SelectionTreeElementEE12e_selvalue_t(ptr noundef nonnull align 8 dereferenceable(16) %0, i32 noundef %1) #1 {
  %3 = alloca ptr, align 8
  %4 = alloca i32, align 4
  %5 = alloca %class.anon.25, align 1
  %6 = alloca %class.anon.27, align 1
  store ptr %0, ptr %3, align 8
  store i32 %1, ptr %4, align 4
  %7 = load ptr, ptr %3, align 8
  %8 = call noundef ptr @_ZNKSt19__shared_ptr_accessIN3gmx20SelectionTreeElementELN9__gnu_cxx12_Lock_policyE2ELb0ELb0EEptEv(ptr noundef nonnull align 1 dereferenceable(1) %7) #11
  %9 = getelementptr inbounds %"class.gmx::SelectionTreeElement", ptr %8, i32 0, i32 0
  %10 = load i32, ptr %9, align 8
  %11 = icmp ne i32 %10, 2
  br i1 %11, label %15, label %12

12:                                               ; preds = %2
  %13 = load i32, ptr %4, align 4
  %14 = icmp eq i32 %13, 5
  br i1 %14, label %15, label %16

15:                                               ; preds = %12, %2
  br label %17

16:                                               ; preds = %12
  call void @"_ZZ22_gmx_selelem_set_vtypeRKSt10shared_ptrIN3gmx20SelectionTreeElementEE12e_selvalue_tENK3$_0clEv"(ptr noundef nonnull align 1 dereferenceable(1) %5)
  br label %17

17:                                               ; preds = %16, %15
  %18 = load ptr, ptr %3, align 8
  %19 = call noundef ptr @_ZNKSt19__shared_ptr_accessIN3gmx20SelectionTreeElementELN9__gnu_cxx12_Lock_policyE2ELb0ELb0EEptEv(ptr noundef nonnull align 1 dereferenceable(1) %18) #11
  %20 = getelementptr inbounds %"class.gmx::SelectionTreeElement", ptr %19, i32 0, i32 1
  %21 = getelementptr inbounds %struct.gmx_ana_selvalue_t, ptr %20, i32 0, i32 0
  %22 = load i32, ptr %21, align 8
  %23 = icmp eq i32 %22, 0
  br i1 %23, label %32, label %24

24:                                               ; preds = %17
  %25 = load i32, ptr %4, align 4
  %26 = load ptr, ptr %3, align 8
  %27 = call noundef ptr @_ZNKSt19__shared_ptr_accessIN3gmx20SelectionTreeElementELN9__gnu_cxx12_Lock_policyE2ELb0ELb0EEptEv(ptr noundef nonnull align 1 dereferenceable(1) %26) #11
  %28 = getelementptr inbounds %"class.gmx::SelectionTreeElement", ptr %27, i32 0, i32 1
  %29 = getelementptr inbounds %struct.gmx_ana_selvalue_t, ptr %28, i32 0, i32 0
  %30 = load i32, ptr %29, align 8
  %31 = icmp eq i32 %25, %30
  br i1 %31, label %32, label %33

32:                                               ; preds = %24, %17
  br label %34

33:                                               ; preds = %24
  call void @"_ZZ22_gmx_selelem_set_vtypeRKSt10shared_ptrIN3gmx20SelectionTreeElementEE12e_selvalue_tENK3$_1clEv"(ptr noundef nonnull align 1 dereferenceable(1) %6)
  br label %34

34:                                               ; preds = %33, %32
  %35 = load i32, ptr %4, align 4
  %36 = load ptr, ptr %3, align 8
  %37 = call noundef ptr @_ZNKSt19__shared_ptr_accessIN3gmx20SelectionTreeElementELN9__gnu_cxx12_Lock_policyE2ELb0ELb0EEptEv(ptr noundef nonnull align 1 dereferenceable(1) %36) #11
  %38 = getelementptr inbounds %"class.gmx::SelectionTreeElement", ptr %37, i32 0, i32 1
  %39 = getelementptr inbounds %struct.gmx_ana_selvalue_t, ptr %38, i32 0, i32 0
  store i32 %35, ptr %39, align 8
  %40 = load i32, ptr %4, align 4
  %41 = icmp eq i32 %40, 5
  br i1 %41, label %45, label %42

42:                                               ; preds = %34
  %43 = load i32, ptr %4, align 4
  %44 = icmp eq i32 %43, 4
  br i1 %44, label %45, label %51

45:                                               ; preds = %42, %34
  %46 = load ptr, ptr %3, align 8
  %47 = call noundef ptr @_ZNKSt19__shared_ptr_accessIN3gmx20SelectionTreeElementELN9__gnu_cxx12_Lock_policyE2ELb0ELb0EEptEv(ptr noundef nonnull align 1 dereferenceable(1) %46) #11
  %48 = getelementptr inbounds %"class.gmx::SelectionTreeElement", ptr %47, i32 0, i32 3
  %49 = load i32, ptr %48, align 8
  %50 = or i32 %49, 512
  store i32 %50, ptr %48, align 8
  br label %51

51:                                               ; preds = %45, %42
  ret void
}