; Function Attrs: mustprogress uwtable
define void @_Z22_gmx_selelem_set_vtypeRKSt10shared_ptrIN3gmx20SelectionTreeElementEE12e_selvalue_t(ptr nocapture noundef nonnull readonly align 8 dereferenceable(16) %0, i32 noundef %1) local_unnamed_addr #1 {
  %3 = load ptr, ptr %0, align 8
  %4 = load i32, ptr %3, align 8
  %5 = icmp ne i32 %4, 2
  %6 = icmp eq i32 %1, 5
  %or.cond = or i1 %6, %5
  br i1 %or.cond, label %8, label %7

7:                                                ; preds = %2
  tail call void @_ZN3gmx8internal13assertHandlerEPKcS2_S2_S2_i(ptr noundef nonnull @.str.39, ptr noundef nonnull @.str.40, ptr noundef nonnull @"__PRETTY_FUNCTION__._ZZ22_gmx_selelem_set_vtypeRKSt10shared_ptrIN3gmx20SelectionTreeElementEE12e_selvalue_tENK3$_0clEv", ptr noundef nonnull @.str.20, i32 noundef 485) #19
  unreachable

8:                                                ; preds = %2
  %9 = getelementptr inbounds i8, ptr %3, i64 8
  %10 = load i32, ptr %9, align 8
  %11 = icmp eq i32 %10, 0
  %12 = icmp eq i32 %10, %1
  %or.cond12 = or i1 %11, %12
  br i1 %or.cond12, label %14, label %13

13:                                               ; preds = %8
  tail call void @_ZN3gmx8internal13assertHandlerEPKcS2_S2_S2_i(ptr noundef nonnull @.str.41, ptr noundef nonnull @.str.42, ptr noundef nonnull @"__PRETTY_FUNCTION__._ZZ22_gmx_selelem_set_vtypeRKSt10shared_ptrIN3gmx20SelectionTreeElementEE12e_selvalue_tENK3$_0clEv", ptr noundef nonnull @.str.20, i32 noundef 487) #19
  unreachable

14:                                               ; preds = %8
  store i32 %1, ptr %9, align 8
  %15 = and i32 %1, -2
  %or.cond3 = icmp eq i32 %15, 4
  br i1 %or.cond3, label %16, label %21

16:                                               ; preds = %14
  %17 = load ptr, ptr %0, align 8
  %18 = getelementptr inbounds i8, ptr %17, i64 40
  %19 = load i32, ptr %18, align 8
  %20 = or i32 %19, 512
  store i32 %20, ptr %18, align 8
  br label %21

21:                                               ; preds = %14, %16
  ret void
}